; Function Attrs: mustprogress uwtable
define noundef double @_ZNK8QuantLib15AbcdCalibration8maxErrorEv(ptr nocapture noundef nonnull readonly align 8 dereferenceable(176) %this) local_unnamed_addr #3 align 2 {
entry:
  %times_ = getelementptr inbounds nuw i8, ptr %this, i64 128
  %_M_finish.i = getelementptr inbounds nuw i8, ptr %this, i64 136
  %0 = load ptr, ptr %_M_finish.i, align 8, !tbaa !51
  %1 = load ptr, ptr %times_, align 8, !tbaa !52
  %cmp10.not = icmp eq ptr %0, %1
  br i1 %cmp10.not, label %for.cond.cleanup, label %for.body.lr.ph

for.body.lr.ph:                                   ; preds = %entry
  %blackVols_ = getelementptr inbounds nuw i8, ptr %this, i64 152
  br label %for.body

for.cond.cleanup:                                 ; preds = %for.body, %entry
  %maxError.0.lcssa = phi double [ 0xFFEFFFFFFFFFFFFF, %entry ], [ %.sroa.speculated, %for.body ]
  ret double %maxError.0.lcssa

for.body:                                         ; preds = %for.body.lr.ph, %for.body
  %2 = phi ptr [ %1, %for.body.lr.ph ], [ %8, %for.body ]
  %i.012 = phi i64 [ 0, %for.body.lr.ph ], [ %inc, %for.body ]
  %maxError.011 = phi double [ 0xFFEFFFFFFFFFFFFF, %for.body.lr.ph ], [ %.sroa.speculated, %for.body ]
  %add.ptr.i = getelementptr inbounds nuw double, ptr %2, i64 %i.012
  %3 = load double, ptr %add.ptr.i, align 8, !tbaa !19
  %call5 = tail call noundef double @_ZNK8QuantLib15AbcdCalibration5valueEd(ptr noundef nonnull align 8 dereferenceable(176) %this, double noundef %3)
  %4 = load ptr, ptr %blackVols_, align 8, !tbaa !52
  %add.ptr.i4 = getelementptr inbounds nuw double, ptr %4, i64 %i.012
  %5 = load double, ptr %add.ptr.i4, align 8, !tbaa !19
  %sub = fsub double %call5, %5
  %6 = tail call double @llvm.fabs.f64(double %sub)
  %cmp.i = fcmp olt double %maxError.011, %6
  %.sroa.speculated = select i1 %cmp.i, double %6, double %maxError.011
  %inc = add nuw i64 %i.012, 1
  %7 = load ptr, ptr %_M_finish.i, align 8, !tbaa !51
  %8 = load ptr, ptr %times_, align 8, !tbaa !52
  %sub.ptr.lhs.cast.i = ptrtoint ptr %7 to i64
  %sub.ptr.rhs.cast.i = ptrtoint ptr %8 to i64
  %sub.ptr.sub.i = sub i64 %sub.ptr.lhs.cast.i, %sub.ptr.rhs.cast.i
  %sub.ptr.div.i = ashr exact i64 %sub.ptr.sub.i, 3
  %cmp = icmp ult i64 %inc, %sub.ptr.div.i
  br i1 %cmp, label %for.body, label %for.cond.cleanup, !llvm.loop !87
}